; Function Attrs: mustprogress nofree norecurse nosync nounwind willreturn memory(argmem: readwrite) uwtable
define hidden noundef nonnull align 4 dereferenceable(12) ptr @_ZN19OpenColorIO_v2_4dev10CTFVersionaSERKS0_(ptr noundef nonnull returned writeonly align 4 dereferenceable(12) %this, ptr noundef nonnull readonly align 4 dereferenceable(12) %rhs) local_unnamed_addr #6 align 2 {
entry:
  %cmp.not = icmp eq ptr %this, %rhs
  br i1 %cmp.not, label %if.end, label %if.then

if.then:                                          ; preds = %entry
  %0 = load i32, ptr %rhs, align 4
  store i32 %0, ptr %this, align 4
  %m_minor = getelementptr inbounds i8, ptr %rhs, i64 4
  %1 = load i32, ptr %m_minor, align 4
  %m_minor3 = getelementptr inbounds i8, ptr %this, i64 4
  store i32 %1, ptr %m_minor3, align 4
  %m_revision = getelementptr inbounds i8, ptr %rhs, i64 8
  %2 = load i32, ptr %m_revision, align 4
  %m_revision4 = getelementptr inbounds i8, ptr %this, i64 8
  store i32 %2, ptr %m_revision4, align 4
  br label %if.end

if.end:                                           ; preds = %if.then, %entry
  ret ptr %this
}